; Function Attrs: nounwind uwtable
define dso_local i32 @_bt_getrootheight(ptr noundef %0) local_unnamed_addr #0 {
  %2 = getelementptr inbounds nuw i8, ptr %0, i64 456
  %3 = load ptr, ptr %2, align 8
  %4 = icmp eq ptr %3, null
  br i1 %4, label %5, label %14

5:                                                ; preds = %1
  %6 = tail call i32 @ReadBuffer(ptr noundef nonnull %0, i32 noundef 0) #10
  tail call void @LockBuffer(i32 noundef %6, i32 noundef 1) #10
  tail call void @_bt_checkpage(ptr noundef nonnull %0, i32 noundef %6)
  %7 = tail call fastcc ptr @_bt_getmeta(ptr noundef nonnull %0, i32 noundef %6)
  %8 = getelementptr inbounds nuw i8, ptr %7, i64 8
  %9 = load i32, ptr %8, align 8
  %.not = icmp eq i32 %9, 0
  br i1 %.not, label %.thread, label %10

.thread:                                          ; preds = %5
  tail call void @LockBuffer(i32 noundef %6, i32 noundef 0) #10
  tail call void @ReleaseBuffer(i32 noundef %6) #10
  br label %18

10:                                               ; preds = %5
  %11 = getelementptr inbounds nuw i8, ptr %0, i64 344
  %12 = load ptr, ptr %11, align 8
  %13 = tail call ptr @MemoryContextAlloc(ptr noundef %12, i64 noundef 48) #10
  store ptr %13, ptr %2, align 8
  tail call void @llvm.memcpy.p0.p0.i64(ptr noundef nonnull align 1 dereferenceable(48) %13, ptr noundef nonnull align 8 dereferenceable(48) %7, i64 48, i1 false)
  tail call void @LockBuffer(i32 noundef %6, i32 noundef 0) #10
  tail call void @ReleaseBuffer(i32 noundef %6) #10
  %.pre = load ptr, ptr %2, align 8
  br label %14

14:                                               ; preds = %10, %1
  %15 = phi ptr [ %.pre, %10 ], [ %3, %1 ]
  %16 = getelementptr inbounds nuw i8, ptr %15, i64 20
  %17 = load i32, ptr %16, align 4
  br label %18

18:                                               ; preds = %.thread, %14
  %.1 = phi i32 [ %17, %14 ], [ 0, %.thread ]
  ret i32 %.1
}